Archive member included to satisfy reference by file (symbol)

/opt/devkitpro/libtonc/lib/libtonc.a(tonc_input.o)
                              main.o (key_poll)
/opt/devkitpro/libtonc/lib/libtonc.a(tonc_oam.o)
                              display.o (oam_init)
/opt/devkitpro/libtonc/lib/libtonc.a(tonc_obj_affine.o)
                              display.o (obj_aff_copy)
/opt/devkitpro/libtonc/lib/libtonc.a(sin_lut.o)
                              enemy.o (sin_lut)
/opt/devkitpro/libtonc/lib/libtonc.a(tonc_bios.o)
                              /opt/devkitpro/libtonc/lib/libtonc.a(tonc_input.o) (VBlankIntrWait)
/opt/devkitpro/libtonc/lib/libtonc.a(tonc_memcpy.o)
                              main.o (memcpy32)
/opt/devkitpro/libtonc/lib/libtonc.a(tonc_memset.o)
                              display.o (memset32)
/opt/devkitpro/libtonc/lib/libtonc.a(tonc_core.o)
                              /opt/devkitpro/libtonc/lib/libtonc.a(tonc_obj_affine.o) (oam_sizes)
/opt/devkitpro/devkitARM/lib/gcc/arm-none-eabi/15.2.0/thumb/libgcc.a(_sync_none.o)
                              (__sync_synchronize_none)
/opt/devkitpro/devkitARM/lib/gcc/arm-none-eabi/15.2.0/../../../../arm-none-eabi/lib/thumb/libg.a(libc_a-init.o)
                              /opt/devkitpro/devkitARM/lib/gcc/arm-none-eabi/15.2.0/../../../../arm-none-eabi/lib/thumb/gba_crt0.o (__libc_init_array)
/opt/devkitpro/devkitARM/lib/gcc/arm-none-eabi/15.2.0/../../../../arm-none-eabi/lib/thumb/libsysbase.a(libsysbase_libsysbase_a-malloc_vars.o)
                              /opt/devkitpro/devkitARM/lib/gcc/arm-none-eabi/15.2.0/../../../../arm-none-eabi/lib/thumb/gba_crt0.o (fake_heap_end)

Discarded input sections

 .text          0x00000000        0x0 /opt/devkitpro/devkitARM/lib/gcc/arm-none-eabi/15.2.0/../../../../arm-none-eabi/lib/thumb/gba_crt0.o
 .data          0x00000000        0x0 /opt/devkitpro/devkitARM/lib/gcc/arm-none-eabi/15.2.0/../../../../arm-none-eabi/lib/thumb/gba_crt0.o
 .bss           0x00000000        0x0 /opt/devkitpro/devkitARM/lib/gcc/arm-none-eabi/15.2.0/../../../../arm-none-eabi/lib/thumb/gba_crt0.o
 .text          0x00000000        0x0 /opt/devkitpro/devkitARM/lib/gcc/arm-none-eabi/15.2.0/thumb/crti.o
 .data          0x00000000        0x0 /opt/devkitpro/devkitARM/lib/gcc/arm-none-eabi/15.2.0/thumb/crti.o
 .bss           0x00000000        0x0 /opt/devkitpro/devkitARM/lib/gcc/arm-none-eabi/15.2.0/thumb/crti.o
 .text          0x00000000        0x0 /opt/devkitpro/devkitARM/lib/gcc/arm-none-eabi/15.2.0/thumb/crtbegin.o
 .data          0x00000000        0x0 /opt/devkitpro/devkitARM/lib/gcc/arm-none-eabi/15.2.0/thumb/crtbegin.o
 .bss           0x00000000        0x0 /opt/devkitpro/devkitARM/lib/gcc/arm-none-eabi/15.2.0/thumb/crtbegin.o
 .rodata.all_implied_fbits
                0x00000000       0x24 /opt/devkitpro/devkitARM/lib/gcc/arm-none-eabi/15.2.0/thumb/crtbegin.o
 .data.__dso_handle
                0x00000000        0x4 /opt/devkitpro/devkitARM/lib/gcc/arm-none-eabi/15.2.0/thumb/crtbegin.o
 .data          0x00000000        0x0 bullet.o
 .bss           0x00000000        0x0 bullet.o
 .data          0x00000000        0x0 display.o
 .data          0x00000000        0x0 enemy.o
 .bss           0x00000000        0x0 enemy.o
 .data          0x00000000        0x0 main.o
 .data          0x00000000        0x0 player.o
 .bss           0x00000000        0x0 player.o
 .text          0x00000000        0x0 test.o
 .data          0x00000000        0x0 test.o
 .bss           0x00000000        0x0 test.o
 .data          0x00000000        0x0 /opt/devkitpro/libtonc/lib/libtonc.a(tonc_oam.o)
 .bss           0x00000000        0x0 /opt/devkitpro/libtonc/lib/libtonc.a(tonc_oam.o)
 .data          0x00000000        0x0 /opt/devkitpro/libtonc/lib/libtonc.a(tonc_obj_affine.o)
 .bss           0x00000000        0x0 /opt/devkitpro/libtonc/lib/libtonc.a(tonc_obj_affine.o)
 .text          0x00000000        0x0 /opt/devkitpro/libtonc/lib/libtonc.a(sin_lut.o)
 .data          0x00000000        0x0 /opt/devkitpro/libtonc/lib/libtonc.a(sin_lut.o)
 .bss           0x00000000        0x0 /opt/devkitpro/libtonc/lib/libtonc.a(sin_lut.o)
 .data          0x00000000        0x0 /opt/devkitpro/libtonc/lib/libtonc.a(tonc_bios.o)
 .bss           0x00000000        0x0 /opt/devkitpro/libtonc/lib/libtonc.a(tonc_bios.o)
 .text          0x00000000       0x44 /opt/devkitpro/libtonc/lib/libtonc.a(tonc_memcpy.o)
 .data          0x00000000        0x0 /opt/devkitpro/libtonc/lib/libtonc.a(tonc_memcpy.o)
 .bss           0x00000000        0x0 /opt/devkitpro/libtonc/lib/libtonc.a(tonc_memcpy.o)
 .text          0x00000000       0x3c /opt/devkitpro/libtonc/lib/libtonc.a(tonc_memset.o)
 .data          0x00000000        0x0 /opt/devkitpro/libtonc/lib/libtonc.a(tonc_memset.o)
 .bss           0x00000000        0x0 /opt/devkitpro/libtonc/lib/libtonc.a(tonc_memset.o)
 .text          0x00000000      0x20c /opt/devkitpro/libtonc/lib/libtonc.a(tonc_core.o)
 .data          0x00000000        0x8 /opt/devkitpro/libtonc/lib/libtonc.a(tonc_core.o)
 .bss           0x00000000        0x0 /opt/devkitpro/libtonc/lib/libtonc.a(tonc_core.o)
 .text          0x00000000        0x4 /opt/devkitpro/devkitARM/lib/gcc/arm-none-eabi/15.2.0/thumb/libgcc.a(_sync_none.o)
 .data          0x00000000        0x0 /opt/devkitpro/devkitARM/lib/gcc/arm-none-eabi/15.2.0/thumb/libgcc.a(_sync_none.o)
 .bss           0x00000000        0x0 /opt/devkitpro/devkitARM/lib/gcc/arm-none-eabi/15.2.0/thumb/libgcc.a(_sync_none.o)
 .debug_line    0x00000000       0x4a /opt/devkitpro/devkitARM/lib/gcc/arm-none-eabi/15.2.0/thumb/libgcc.a(_sync_none.o)
 .debug_line_str
                0x00000000       0xcd /opt/devkitpro/devkitARM/lib/gcc/arm-none-eabi/15.2.0/thumb/libgcc.a(_sync_none.o)
 .debug_info    0x00000000       0x31 /opt/devkitpro/devkitARM/lib/gcc/arm-none-eabi/15.2.0/thumb/libgcc.a(_sync_none.o)
 .debug_abbrev  0x00000000       0x28 /opt/devkitpro/devkitARM/lib/gcc/arm-none-eabi/15.2.0/thumb/libgcc.a(_sync_none.o)
 .debug_aranges
                0x00000000       0x20 /opt/devkitpro/devkitARM/lib/gcc/arm-none-eabi/15.2.0/thumb/libgcc.a(_sync_none.o)
 .debug_str     0x00000000       0xf3 /opt/devkitpro/devkitARM/lib/gcc/arm-none-eabi/15.2.0/thumb/libgcc.a(_sync_none.o)
 .text          0x00000000        0x0 /opt/devkitpro/devkitARM/lib/gcc/arm-none-eabi/15.2.0/../../../../arm-none-eabi/lib/thumb/libg.a(libc_a-init.o)
 .data          0x00000000        0x0 /opt/devkitpro/devkitARM/lib/gcc/arm-none-eabi/15.2.0/../../../../arm-none-eabi/lib/thumb/libg.a(libc_a-init.o)
 .bss           0x00000000        0x0 /opt/devkitpro/devkitARM/lib/gcc/arm-none-eabi/15.2.0/../../../../arm-none-eabi/lib/thumb/libg.a(libc_a-init.o)
 .text          0x00000000        0x0 /opt/devkitpro/devkitARM/lib/gcc/arm-none-eabi/15.2.0/../../../../arm-none-eabi/lib/thumb/libsysbase.a(libsysbase_libsysbase_a-malloc_vars.o)
 .data          0x00000000        0x0 /opt/devkitpro/devkitARM/lib/gcc/arm-none-eabi/15.2.0/../../../../arm-none-eabi/lib/thumb/libsysbase.a(libsysbase_libsysbase_a-malloc_vars.o)
 .bss           0x00000000        0x0 /opt/devkitpro/devkitARM/lib/gcc/arm-none-eabi/15.2.0/../../../../arm-none-eabi/lib/thumb/libsysbase.a(libsysbase_libsysbase_a-malloc_vars.o)
 .bss.fake_heap_start
                0x00000000        0x4 /opt/devkitpro/devkitARM/lib/gcc/arm-none-eabi/15.2.0/../../../../arm-none-eabi/lib/thumb/libsysbase.a(libsysbase_libsysbase_a-malloc_vars.o)
 .text          0x00000000        0x0 /opt/devkitpro/devkitARM/lib/gcc/arm-none-eabi/15.2.0/thumb/crtend.o
 .data          0x00000000        0x0 /opt/devkitpro/devkitARM/lib/gcc/arm-none-eabi/15.2.0/thumb/crtend.o
 .bss           0x00000000        0x0 /opt/devkitpro/devkitARM/lib/gcc/arm-none-eabi/15.2.0/thumb/crtend.o
 .rodata.all_implied_fbits
                0x00000000       0x24 /opt/devkitpro/devkitARM/lib/gcc/arm-none-eabi/15.2.0/thumb/crtend.o
 .text          0x00000000        0x0 /opt/devkitpro/devkitARM/lib/gcc/arm-none-eabi/15.2.0/thumb/crtn.o
 .data          0x00000000        0x0 /opt/devkitpro/devkitARM/lib/gcc/arm-none-eabi/15.2.0/thumb/crtn.o
 .bss           0x00000000        0x0 /opt/devkitpro/devkitARM/lib/gcc/arm-none-eabi/15.2.0/thumb/crtn.o

Memory Configuration

Name             Origin             Length             Attributes
rom              0x08000000         0x02000000
iwram            0x03000000         0x00008000
ewram            0x02000000         0x00040000
*default*        0x00000000         0xffffffff

Linker script and memory map

                0x00000000                        __sync_synchronize = __sync_synchronize_none
                0x08000000                        __text_start = ORIGIN (rom)
                0x02040000                        __eheap_end = (ORIGIN (ewram) + LENGTH (ewram))
                0x03000000                        __iwram_start = ORIGIN (iwram)
                0x03008000                        __iwram_top = (ORIGIN (iwram) + LENGTH (iwram))
                0x03007fa0                        __sp_irq = (__iwram_top - 0x60)
                0x03007f00                        __sp_usr = (__sp_irq - 0xa0)
                0x03007ff8                        __irq_flags = 0x3007ff8
                0x08000000                        . = __text_start

.crt0           0x08000000      0x210
 *(.crt0)
 .crt0          0x08000000      0x210 /opt/devkitpro/devkitARM/lib/gcc/arm-none-eabi/15.2.0/../../../../arm-none-eabi/lib/thumb/gba_crt0.o
                0x08000000                _start
                0x080000c4                __boot_method
                0x080000c5                __slave_number
                0x080000e0                start_vector
                0x08000210                        . = ALIGN (0x4)

.init           0x08000210        0xc
 *(SORT_NONE(.init))
 .init          0x08000210        0x4 /opt/devkitpro/devkitARM/lib/gcc/arm-none-eabi/15.2.0/thumb/crti.o
                0x08000210                _init
 .init          0x08000214        0x8 /opt/devkitpro/devkitARM/lib/gcc/arm-none-eabi/15.2.0/thumb/crtn.o

.plt            0x0800021c        0x0
 *(.plt)
                0x0800021c                        . = ALIGN (0x4)

.text           0x0800021c      0xaec
 *(EXCLUDE_FILE(*.iwram*) .text*)
 .text.__do_global_dtors_aux
                0x0800021c       0x2c /opt/devkitpro/devkitARM/lib/gcc/arm-none-eabi/15.2.0/thumb/crtbegin.o
 .text.frame_dummy
                0x08000248       0x24 /opt/devkitpro/devkitARM/lib/gcc/arm-none-eabi/15.2.0/thumb/crtbegin.o
 .text          0x0800026c       0x84 bullet.o
                0x0800026c                bulletInit
                0x0800029c                bulletUpdate
 .text          0x080002f0      0x128 display.o
                0x080002f0                displayGetSEIndexFast
                0x08000318                getAffineID
                0x08000328                displayAllocObjAttr
                0x08000354                displayFreeObjAttr
                0x0800037c                displayInit
                0x080003d4                displayUpdate
 .text          0x08000418       0xcc enemy.o
                0x08000418                EnemyInit
                0x0800048c                EnemyUpdate
 .text          0x080004e4       0x58 main.o
                0x080004e4                assetInit
 .text.startup  0x0800053c      0x124 main.o
                0x0800053c                main
 .text          0x08000660      0x184 player.o
                0x08000660                playerInit
                0x08000694                playerUpdate
                0x08000728                playerShootBullet
                0x080007e0                playerGetBullets
 .text          0x080007e4       0xac /opt/devkitpro/libtonc/lib/libtonc.a(tonc_input.o)
                0x080007e4                key_poll
                0x0800083c                key_wait_till_hit
                0x08000860                key_repeat
                0x0800086c                key_repeat_mask
                0x0800087c                key_repeat_limits
 .text          0x08000890       0xc0 /opt/devkitpro/libtonc/lib/libtonc.a(tonc_oam.o)
                0x08000890                oam_init
                0x080008dc                obj_copy
                0x080008fc                obj_hide_multi
                0x08000924                obj_unhide_multi
 .text          0x08000950      0x2d8 /opt/devkitpro/libtonc/lib/libtonc.a(tonc_obj_affine.o)
                0x08000950                obj_aff_copy
                0x08000980                obj_aff_rotate
                0x080009ac                obj_aff_rotscale
                0x080009f0                obj_aff_premul
                0x08000a58                obj_aff_postmul
                0x08000ac4                obj_aff_rotscale2
                0x08000b14                obj_rotscale_ex
 .text          0x08000c28       0x8c /opt/devkitpro/libtonc/lib/libtonc.a(tonc_bios.o)
                0x08000c28                SoftReset
                0x08000c2c                RegisterRamReset
                0x08000c30                Halt
                0x08000c34                Stop
                0x08000c38                IntrWait
                0x08000c3c                VBlankIntrWait
                0x08000c40                Div
                0x08000c44                DivArm
                0x08000c48                Sqrt
                0x08000c4c                ArcTan
                0x08000c50                ArcTan2
                0x08000c54                CpuSet
                0x08000c58                CpuFastSet
                0x08000c5c                BiosCheckSum
                0x08000c60                BgAffineSet
                0x08000c64                ObjAffineSet
                0x08000c68                BitUnPack
                0x08000c6c                LZ77UnCompWram
                0x08000c70                LZ77UnCompVram
                0x08000c74                HuffUnComp
                0x08000c78                RLUnCompWram
                0x08000c7c                RLUnCompVram
                0x08000c80                Diff8bitUnFilterWram
                0x08000c84                Diff8bitUnFilterVram
                0x08000c88                Diff16bitUnFilter
                0x08000c8c                SoundBias
                0x08000c90                SoundDriverInit
                0x08000c94                SoundDriverMode
                0x08000c98                SoundDriverMain
                0x08000c9c                SoundDriverVSync
                0x08000ca0                SoundChannelClear
                0x08000ca4                MidiKey2Freq
                0x08000ca8                MultiBoot
                0x08000cac                SoundDriverVSyncOff
                0x08000cb0                SoundDriverVSyncOn
 .text.__libc_init_array
                0x08000cb4       0x54 /opt/devkitpro/devkitARM/lib/gcc/arm-none-eabi/15.2.0/../../../../arm-none-eabi/lib/thumb/libg.a(libc_a-init.o)
                0x08000cb4                __libc_init_array
 *(.gnu.linkonce.t.*)
 *(.text.*personality*)
 *(.gnu.warning)
 *(.glue_7t)
 .glue_7t       0x08000d08        0x0 linker stubs
 *(.glue_7)
 .glue_7        0x08000d08        0x0 linker stubs
 *(.vfp11_veneer)
 .vfp11_veneer  0x08000d08        0x0 linker stubs
                0x08000d08                        . = ALIGN (0x4)
                0x08000d08                        __text_end = .

.v4_bx          0x08000d08        0x0
 .v4_bx         0x08000d08        0x0 linker stubs

.iplt           0x08000d08        0x0
 .iplt          0x08000d08        0x0 /opt/devkitpro/devkitARM/lib/gcc/arm-none-eabi/15.2.0/../../../../arm-none-eabi/lib/thumb/gba_crt0.o

.fini           0x08000d08        0xc
 *(.fini)
 .fini          0x08000d08        0x4 /opt/devkitpro/devkitARM/lib/gcc/arm-none-eabi/15.2.0/thumb/crti.o
                0x08000d08                _fini
 .fini          0x08000d0c        0x8 /opt/devkitpro/devkitARM/lib/gcc/arm-none-eabi/15.2.0/thumb/crtn.o
                0x08000d14                        . = ALIGN (0x4)

.rodata         0x08000d14      0xe5c
 *(.rodata)
 .rodata        0x08000d14      0xa00 test.o
                0x08000d14                testPal
                0x08000f14                testTiles
 .rodata        0x08001714      0x404 /opt/devkitpro/libtonc/lib/libtonc.a(sin_lut.o)
                0x08001714                sin_lut
 .rodata        0x08001b18       0x58 /opt/devkitpro/libtonc/lib/libtonc.a(tonc_core.o)
                0x08001b18                __snd_rates
                0x08001b48                bg_aff_default
                0x08001b58                oam_sizes
 *all.rodata*(*)
 *(.roda)
 *(.rodata.*)
 *(.gnu.linkonce.r*)
                0x08001b70                        . = ALIGN (0x4)

.ARM.extab
 *(.ARM.extab* .gnu.linkonce.armextab.*)
                0x08001b70                        __exidx_start = .

.ARM.exidx
 *(.ARM.exidx* .gnu.linkonce.armexidx.*)
                0x08001b70                        __exidx_end = .

.ctors          0x08001b70        0x0
 *crtbegin.o(.ctors)
 *(EXCLUDE_FILE(*crtend.o) .ctors)
 *(SORT_BY_NAME(.ctors.*))
 *(.ctors)
                0x08001b70                        . = ALIGN (0x4)

.dtors          0x08001b70        0x0
 *crtbegin.o(.dtors)
 *(EXCLUDE_FILE(*crtend.o) .dtors)
 *(SORT_BY_NAME(.dtors.*))
 *(.dtors)
                0x08001b70                        . = ALIGN (0x4)

.eh_frame       0x08001b70        0x4
 *(.eh_frame)
 .eh_frame      0x08001b70        0x0 /opt/devkitpro/devkitARM/lib/gcc/arm-none-eabi/15.2.0/thumb/crtbegin.o
 .eh_frame      0x08001b70        0x4 /opt/devkitpro/devkitARM/lib/gcc/arm-none-eabi/15.2.0/thumb/crtend.o
                0x08001b74                        . = ALIGN (0x4)

.gcc_except_table
                0x08001b74        0x0
 *(.gcc_except_table)
                0x08001b74                        . = ALIGN (0x4)
                0x08001b74                        __iwram_lma = .

.iwram          0x03000000       0x84 load address 0x08001b74
                0x03000000                        __iwram_start__ = ABSOLUTE (.)
 *(.iwram .iwram*)
 .iwram         0x03000000       0x38 /opt/devkitpro/libtonc/lib/libtonc.a(tonc_memcpy.o)
                0x03000000                memcpy32
 .iwram         0x03000038       0x4c /opt/devkitpro/libtonc/lib/libtonc.a(tonc_memset.o)
                0x03000038                memset32
 *iwram.*(.text* .data*)
                0x03000084                        . = ALIGN (0x4)
                0x03000084                        __iwram_end__ = ABSOLUTE (.)
                0x08001bf8                        __data_lma = (__iwram_lma + SIZEOF (.iwram))

.bss            0x03000084     0x10f0
                0x03000084                        __bss_start = ABSOLUTE (.)
                0x03000084                        __bss_start__ = ABSOLUTE (.)
 *(.dynbss)
 *(.gnu.linkonce.b*)
 *(.bss*)
 .bss.completed.1
                0x03000084        0x1 /opt/devkitpro/devkitARM/lib/gcc/arm-none-eabi/15.2.0/thumb/crtbegin.o
 *fill*         0x03000085        0x3 
 .bss.object.0  0x03000088       0x18 /opt/devkitpro/devkitARM/lib/gcc/arm-none-eabi/15.2.0/thumb/crtbegin.o
 .bss           0x030000a0      0x488 display.o
                0x030000a0                objAffBuffer
                0x030000a8                spriteIsUsed
                0x03000128                sprites
 .bss           0x03000528      0xc44 main.o
                0x03000528                enemyIsUsed
                0x03000568                frameCounter
                0x0300056c                enemies
 .bss           0x0300116c        0x4 /opt/devkitpro/libtonc/lib/libtonc.a(tonc_input.o)
                0x0300116c                __key_curr
                0x0300116e                __key_prev
 .bss.fake_heap_end
                0x03001170        0x4 /opt/devkitpro/devkitARM/lib/gcc/arm-none-eabi/15.2.0/../../../../arm-none-eabi/lib/thumb/libsysbase.a(libsysbase_libsysbase_a-malloc_vars.o)
                0x03001170                fake_heap_end
 *(COMMON)
                0x03001174                        . = ALIGN (0x4)
                0x03001174                        __bss_end__ = ABSOLUTE (.)

.data           0x03001174        0x8 load address 0x08001bf8
                0x03001174                        __data_start__ = ABSOLUTE (.)
 *(.data*)
 .data          0x03001174        0x8 /opt/devkitpro/libtonc/lib/libtonc.a(tonc_input.o)
                0x03001174                __key_rpt
 *(.gnu.linkonce.d*)
                0x0300117c                        . = ALIGN (0x4)
                0x08001c00                        __preinit_lma = (__data_lma + SIZEOF (.data))

.igot.plt       0x0300117c        0x0 load address 0x08001c00
 .igot.plt      0x0300117c        0x0 /opt/devkitpro/devkitARM/lib/gcc/arm-none-eabi/15.2.0/../../../../arm-none-eabi/lib/thumb/gba_crt0.o

.preinit_array  0x0300117c        0x0 load address 0x08001c00
                0x0300117c                        __preinit_array_start = ABSOLUTE (.)
 *(.preinit_array)
                0x0300117c                        __preinit_array_end = ABSOLUTE (.)
                0x08001c00                        __init_lma = (__preinit_lma + SIZEOF (.preinit_array))

.init_array     0x0300117c        0x4 load address 0x08001c00
                0x0300117c                        __init_array_start = ABSOLUTE (.)
 *(SORT_BY_NAME(.init_array.*))
 *(.init_array)
 .init_array    0x0300117c        0x4 /opt/devkitpro/devkitARM/lib/gcc/arm-none-eabi/15.2.0/thumb/crtbegin.o
                0x03001180                        __init_array_end = ABSOLUTE (.)
                0x08001c04                        __fini_lma = (__init_lma + SIZEOF (.init_array))

.fini_array     0x03001180        0x4 load address 0x08001c04
                0x03001180                        __fini_array_start = ABSOLUTE (.)
 *(SORT_BY_NAME(.fini_array.*))
 *(.fini_array)
 .fini_array    0x03001180        0x4 /opt/devkitpro/devkitARM/lib/gcc/arm-none-eabi/15.2.0/thumb/crtbegin.o
                0x03001184                        __fini_array_end = ABSOLUTE (.)
                0x08001c08                        __jcr_lma = (__fini_lma + SIZEOF (.fini_array))

.jcr
 *(.jcr)
                0x03001184                        __data_end__ = ABSOLUTE (.)
                0x08001c08                        __iwram_overlay_lma = (__jcr_lma + SIZEOF (.jcr))
                0x03001184                        __iwram_overlay_start = .

.iwram0         0x03001184        0x0 load address 0x08001c08
 *(.iwram0)
                0x03001184                        . = ALIGN (0x4)
                0x08001c08                        PROVIDE (__load_start_iwram0 = LOADADDR (.iwram0))
                0x08001c08                        PROVIDE (__load_stop_iwram0 = (LOADADDR (.iwram0) + SIZEOF (.iwram0)))

.iwram1         0x03001184        0x0
 *(.iwram1)
                0x03001184                        . = ALIGN (0x4)
                [!provide]                        PROVIDE (__load_start_iwram1 = LOADADDR (.iwram1))
                [!provide]                        PROVIDE (__load_stop_iwram1 = (LOADADDR (.iwram1) + SIZEOF (.iwram1)))

.iwram2         0x03001184        0x0
 *(.iwram2)
                0x03001184                        . = ALIGN (0x4)
                [!provide]                        PROVIDE (__load_start_iwram2 = LOADADDR (.iwram2))
                [!provide]                        PROVIDE (__load_stop_iwram2 = (LOADADDR (.iwram2) + SIZEOF (.iwram2)))

.iwram3         0x03001184        0x0
 *(.iwram3)
                0x03001184                        . = ALIGN (0x4)
                [!provide]                        PROVIDE (__load_start_iwram3 = LOADADDR (.iwram3))
                [!provide]                        PROVIDE (__load_stop_iwram3 = (LOADADDR (.iwram3) + SIZEOF (.iwram3)))

.iwram4         0x03001184        0x0
 *(.iwram4)
                0x03001184                        . = ALIGN (0x4)
                [!provide]                        PROVIDE (__load_start_iwram4 = LOADADDR (.iwram4))
                [!provide]                        PROVIDE (__load_stop_iwram4 = (LOADADDR (.iwram4) + SIZEOF (.iwram4)))

.iwram5         0x03001184        0x0
 *(.iwram5)
                0x03001184                        . = ALIGN (0x4)
                [!provide]                        PROVIDE (__load_start_iwram5 = LOADADDR (.iwram5))
                [!provide]                        PROVIDE (__load_stop_iwram5 = (LOADADDR (.iwram5) + SIZEOF (.iwram5)))

.iwram6         0x03001184        0x0
 *(.iwram6)
                0x03001184                        . = ALIGN (0x4)
                [!provide]                        PROVIDE (__load_start_iwram6 = LOADADDR (.iwram6))
                [!provide]                        PROVIDE (__load_stop_iwram6 = (LOADADDR (.iwram6) + SIZEOF (.iwram6)))

.iwram7         0x03001184        0x0
 *(.iwram7)
                0x03001184                        . = ALIGN (0x4)
                [!provide]                        PROVIDE (__load_start_iwram7 = LOADADDR (.iwram7))
                [!provide]                        PROVIDE (__load_stop_iwram7 = (LOADADDR (.iwram7) + SIZEOF (.iwram7)))

.iwram8         0x03001184        0x0
 *(.iwram8)
                0x03001184                        . = ALIGN (0x4)
                [!provide]                        PROVIDE (__load_start_iwram8 = LOADADDR (.iwram8))
                [!provide]                        PROVIDE (__load_stop_iwram8 = (LOADADDR (.iwram8) + SIZEOF (.iwram8)))

.iwram9         0x03001184        0x0
 *(.iwram9)
                0x03001184                        . = ALIGN (0x4)
                [!provide]                        PROVIDE (__load_start_iwram9 = LOADADDR (.iwram9))
                [!provide]                        PROVIDE (__load_stop_iwram9 = (LOADADDR (.iwram9) + SIZEOF (.iwram9)))
                0x03001184                        __iwram_overlay_end = .
                0x08001c08                        __ewram_lma = (__iwram_overlay_lma + (__iwram_overlay_end - __iwram_overlay_start))
                0x03001184                        __iheap_start = .
                0x02000000                        __ewram_start = ORIGIN (ewram)

.ewram          0x02000000        0x0 load address 0x08001c08
 *(.ewram*)
                0x02000000                        . = ALIGN (0x4)
                0x02000000                        __ewram_end = ABSOLUTE (.)
                0x08001c08                        __pad_lma = (__ewram_lma + SIZEOF (.ewram))

.sbss           0x02000000        0x0
                0x02000000                        __sbss_start__ = ABSOLUTE (.)
 *(.sbss*)
                0x02000000                        . = ALIGN (0x4)
                0x02000000                        __sbss_end__ = ABSOLUTE (.)
                0x02000000                        __end__ = ABSOLUTE (.)
                0x02000000                        __eheap_start = ABSOLUTE (.)

.pad            0x02000000        0x8 load address 0x08001c08
                0x02000000        0x4 LONG 0x52416b64
                0x02000004        0x4 LONG 0x4d
                0x02000008                        . = ALIGN (0x4)
                0x08001c10                        __rom_end__ = (__pad_lma + SIZEOF (.pad))

.rel.dyn        0x02000008        0x0 load address 0x08001c10
 .rel.iplt      0x02000008        0x0 /opt/devkitpro/devkitARM/lib/gcc/arm-none-eabi/15.2.0/../../../../arm-none-eabi/lib/thumb/gba_crt0.o

.stab
 *(.stab)

.stabstr
 *(.stabstr)

.stab.excl
 *(.stab.excl)

.stab.exclstr
 *(.stab.exclstr)

.stab.index
 *(.stab.index)

.stab.indexstr
 *(.stab.indexstr)

.comment        0x00000000       0x3b
 *(.comment)
 .comment       0x00000000       0x3b /opt/devkitpro/devkitARM/lib/gcc/arm-none-eabi/15.2.0/thumb/crtbegin.o
                                 0x19 (size before relaxing)
 .comment       0x0000003b        0x0 bullet.o
                                 0x19 (size before relaxing)
 .comment       0x0000003b        0x0 display.o
                                 0x19 (size before relaxing)
 .comment       0x0000003b        0x0 enemy.o
                                 0x19 (size before relaxing)
 .comment       0x0000003b        0x0 main.o
                                 0x19 (size before relaxing)
 .comment       0x0000003b        0x0 player.o
                                 0x19 (size before relaxing)
 .comment       0x0000003b        0x0 test.o
                                 0x19 (size before relaxing)
 .comment       0x0000003b        0x0 /opt/devkitpro/libtonc/lib/libtonc.a(tonc_input.o)
                                 0x24 (size before relaxing)
 .comment       0x0000003b        0x0 /opt/devkitpro/libtonc/lib/libtonc.a(tonc_oam.o)
                                 0x24 (size before relaxing)
 .comment       0x0000003b        0x0 /opt/devkitpro/libtonc/lib/libtonc.a(tonc_obj_affine.o)
                                 0x24 (size before relaxing)
 .comment       0x0000003b        0x0 /opt/devkitpro/libtonc/lib/libtonc.a(tonc_core.o)
                                 0x24 (size before relaxing)
 .comment       0x0000003b        0x0 /opt/devkitpro/devkitARM/lib/gcc/arm-none-eabi/15.2.0/thumb/crtend.o
                                 0x19 (size before relaxing)

.debug
 *(.debug)

.line
 *(.line)

.debug_srcinfo
 *(.debug_srcinfo)

.debug_sfnames
 *(.debug_sfnames)

.debug_aranges  0x00000000       0xc0
 *(.debug_aranges)
 .debug_aranges
                0x00000000       0x20 bullet.o
 .debug_aranges
                0x00000020       0x20 display.o
 .debug_aranges
                0x00000040       0x20 enemy.o
 .debug_aranges
                0x00000060       0x28 main.o
 .debug_aranges
                0x00000088       0x20 player.o
 .debug_aranges
                0x000000a8       0x18 test.o

.debug_pubnames
 *(.debug_pubnames)

.debug_info     0x00000000     0x27ef
 *(.debug_info)
 .debug_info    0x00000000      0x4da bullet.o
 .debug_info    0x000004da      0x5fe display.o
 .debug_info    0x00000ad8      0x932 enemy.o
 .debug_info    0x0000140a      0x9a9 main.o
 .debug_info    0x00001db3      0x9ad player.o
 .debug_info    0x00002760       0x8f test.o

.debug_abbrev   0x00000000      0xfb9
 *(.debug_abbrev)
 .debug_abbrev  0x00000000      0x244 bullet.o
 .debug_abbrev  0x00000244      0x2e0 display.o
 .debug_abbrev  0x00000524      0x2ef enemy.o
 .debug_abbrev  0x00000813      0x39c main.o
 .debug_abbrev  0x00000baf      0x3aa player.o
 .debug_abbrev  0x00000f59       0x60 test.o

.debug_line     0x00000000     0x1408
 *(.debug_line)
 .debug_line    0x00000000      0x2b0 bullet.o
 .debug_line    0x000002b0      0x3a7 display.o
 .debug_line    0x00000657      0x44e enemy.o
 .debug_line    0x00000aa5      0x3a8 main.o
 .debug_line    0x00000e4d      0x530 player.o
 .debug_line    0x0000137d       0x8b test.o

.debug_frame    0x00000000      0x1e8
 *(.debug_frame)
 .debug_frame   0x00000000       0x4c bullet.o
 .debug_frame   0x0000004c       0x80 display.o
 .debug_frame   0x000000cc       0x48 enemy.o
 .debug_frame   0x00000114       0x58 main.o
 .debug_frame   0x0000016c       0x7c player.o

.debug_str      0x00000000      0x78c
 *(.debug_str)
 .debug_str     0x00000000      0x78c bullet.o
                                0x25c (size before relaxing)
 .debug_str     0x0000078c        0x0 display.o
                                0x3a3 (size before relaxing)
 .debug_str     0x0000078c        0x0 enemy.o
                                0x334 (size before relaxing)
 .debug_str     0x0000078c        0x0 main.o
                                0x522 (size before relaxing)
 .debug_str     0x0000078c        0x0 player.o
                                0x3d9 (size before relaxing)
 .debug_str     0x0000078c        0x0 test.o
                                0x104 (size before relaxing)

.debug_loc
 *(.debug_loc)

.debug_macinfo
 *(.debug_macinfo)

.debug_weaknames
 *(.debug_weaknames)

.debug_funcnames
 *(.debug_funcnames)

.debug_typenames
 *(.debug_typenames)

.debug_varnames
 *(.debug_varnames)

.stack          0x00080000        0x0
                0x00080000                        _stack = .
 *(.stack)

.note.gnu.arm.ident
 *(.note.gnu.arm.ident)

.ARM.attributes
                0x00000000       0x2c
 *(.ARM.attributes)
 .ARM.attributes
                0x00000000       0x20 /opt/devkitpro/devkitARM/lib/gcc/arm-none-eabi/15.2.0/../../../../arm-none-eabi/lib/thumb/gba_crt0.o
 .ARM.attributes
                0x00000020       0x1c /opt/devkitpro/devkitARM/lib/gcc/arm-none-eabi/15.2.0/thumb/crti.o
 .ARM.attributes
                0x0000003c       0x2a /opt/devkitpro/devkitARM/lib/gcc/arm-none-eabi/15.2.0/thumb/crtbegin.o
 .ARM.attributes
                0x00000066       0x2a bullet.o
 .ARM.attributes
                0x00000090       0x2a display.o
 .ARM.attributes
                0x000000ba       0x2a enemy.o
 .ARM.attributes
                0x000000e4       0x2a main.o
 .ARM.attributes
                0x0000010e       0x2a player.o
 .ARM.attributes
                0x00000138       0x2a test.o
 .ARM.attributes
                0x00000162       0x2a /opt/devkitpro/libtonc/lib/libtonc.a(tonc_input.o)
 .ARM.attributes
                0x0000018c       0x2a /opt/devkitpro/libtonc/lib/libtonc.a(tonc_oam.o)
 .ARM.attributes
                0x000001b6       0x2a /opt/devkitpro/libtonc/lib/libtonc.a(tonc_obj_affine.o)
 .ARM.attributes
                0x000001e0       0x1a /opt/devkitpro/libtonc/lib/libtonc.a(sin_lut.o)
 .ARM.attributes
                0x000001fa       0x1a /opt/devkitpro/libtonc/lib/libtonc.a(tonc_bios.o)
 .ARM.attributes
                0x00000214       0x1a /opt/devkitpro/libtonc/lib/libtonc.a(tonc_memcpy.o)
 .ARM.attributes
                0x0000022e       0x1a /opt/devkitpro/libtonc/lib/libtonc.a(tonc_memset.o)
 .ARM.attributes
                0x00000248       0x2a /opt/devkitpro/libtonc/lib/libtonc.a(tonc_core.o)
 .ARM.attributes
                0x00000272       0x1c /opt/devkitpro/devkitARM/lib/gcc/arm-none-eabi/15.2.0/thumb/libgcc.a(_sync_none.o)
 .ARM.attributes
                0x0000028e       0x2a /opt/devkitpro/devkitARM/lib/gcc/arm-none-eabi/15.2.0/../../../../arm-none-eabi/lib/thumb/libg.a(libc_a-init.o)
 .ARM.attributes
                0x000002b8       0x2a /opt/devkitpro/devkitARM/lib/gcc/arm-none-eabi/15.2.0/../../../../arm-none-eabi/lib/thumb/libsysbase.a(libsysbase_libsysbase_a-malloc_vars.o)
 .ARM.attributes
                0x000002e2       0x2a /opt/devkitpro/devkitARM/lib/gcc/arm-none-eabi/15.2.0/thumb/crtend.o
 .ARM.attributes
                0x0000030c       0x1c /opt/devkitpro/devkitARM/lib/gcc/arm-none-eabi/15.2.0/thumb/crtn.o

/DISCARD/
 *(.note.GNU-stack)
LOAD /opt/devkitpro/devkitARM/lib/gcc/arm-none-eabi/15.2.0/../../../../arm-none-eabi/lib/thumb/gba_crt0.o
LOAD /opt/devkitpro/devkitARM/lib/gcc/arm-none-eabi/15.2.0/thumb/crti.o
LOAD /opt/devkitpro/devkitARM/lib/gcc/arm-none-eabi/15.2.0/thumb/crtbegin.o
LOAD bullet.o
LOAD display.o
LOAD enemy.o
LOAD main.o
LOAD player.o
LOAD test.o
LOAD /opt/devkitpro/libtonc/lib/libtonc.a
START GROUP
LOAD /opt/devkitpro/devkitARM/lib/gcc/arm-none-eabi/15.2.0/thumb/libgcc.a
LOAD /opt/devkitpro/devkitARM/lib/gcc/arm-none-eabi/15.2.0/../../../../arm-none-eabi/lib/thumb/libg.a
LOAD /opt/devkitpro/devkitARM/lib/gcc/arm-none-eabi/15.2.0/../../../../arm-none-eabi/lib/thumb/libc.a
LOAD /opt/devkitpro/devkitARM/lib/gcc/arm-none-eabi/15.2.0/../../../../arm-none-eabi/lib/thumb/libsysbase.a
END GROUP
LOAD /opt/devkitpro/devkitARM/lib/gcc/arm-none-eabi/15.2.0/thumb/crtend.o
LOAD /opt/devkitpro/devkitARM/lib/gcc/arm-none-eabi/15.2.0/thumb/crtn.o
OUTPUT(/home/nepecute/CustomPrograms/GBA/test/test.elf elf32-littlearm)
LOAD linker stubs

.debug_loclists
                0x00000000      0x725
 .debug_loclists
                0x00000000      0x108 bullet.o
 .debug_loclists
                0x00000108       0xbb display.o
 .debug_loclists
                0x000001c3      0x211 enemy.o
 .debug_loclists
                0x000003d4       0xb3 main.o
 .debug_loclists
                0x00000487      0x29e player.o

.debug_rnglists
                0x00000000      0x228
 .debug_rnglists
                0x00000000       0x35 bullet.o
 .debug_rnglists
                0x00000035       0x21 display.o
 .debug_rnglists
                0x00000056       0xca enemy.o
 .debug_rnglists
                0x00000120       0x35 main.o
 .debug_rnglists
                0x00000155       0xd3 player.o
